; Function Attrs: mustprogress uwtable
define void @_ZNK8QuantLib7CPISwap12setupExpiredEv(ptr noundef nonnull align 8 dereferenceable(696) %this) unnamed_addr #8 align 2 {
entry:
  tail call void @_ZNK8QuantLib4Swap12setupExpiredEv(ptr noundef nonnull align 8 dereferenceable(256) %this)
  %legBPS_ = getelementptr inbounds nuw i8, ptr %this, i64 176
  %0 = load ptr, ptr %legBPS_, align 8, !tbaa !139
  %fairRate_ = getelementptr inbounds nuw i8, ptr %this, i64 688
  tail call void @llvm.memset.p0.i64(ptr noundef nonnull align 8 dereferenceable(16) %0, i8 0, i64 16, i1 false)
  store double 0x47EFFFFFE0000000, ptr %fairRate_, align 8, !tbaa !153
  %fairSpread_ = getelementptr inbounds nuw i8, ptr %this, i64 680
  store double 0x47EFFFFFE0000000, ptr %fairSpread_, align 8, !tbaa !154
  ret void
}